target datalayout = "e-m:e-p270:32:32-p271:32:32-p272:64:64-i64:64-i128:128-f80:128-n8:16:32:64-S128"
target triple = "x86_64-pc-linux-gnu"

%struct.Agobj_s = type { %struct.Agtag_s, ptr }
%struct.Agtag_s = type { i32, i64 }
%struct.Agraphinfo_t = type { %struct.Agrec_s, ptr, ptr, %struct.boxf, [4 x %struct.pointf_s], i8, i8, i8, i8, i32, double, double, i16, ptr, ptr, ptr, ptr, i32, ptr, ptr, ptr, ptr, i16, i16, i32, ptr, ptr, ptr, ptr, ptr, i32, ptr, ptr, %struct.nlist_t, ptr, ptr, i32, i32, i8, i8, i32, i32, i32, ptr, ptr, ptr, ptr, i8, i8, i8, i8, i8 }
%struct.Agrec_s = type { ptr, ptr }
%struct.boxf = type { %struct.pointf_s, %struct.pointf_s }
%struct.pointf_s = type { double, double }
%struct.nlist_t = type { ptr, i64 }

@Nop = external global i32, align 4

; Function Attrs: nounwind uwtable
define internal void @free_3array(ptr noundef %0) #0 {
  %2 = alloca ptr, align 8
  %3 = alloca i32, align 4
  %4 = alloca i32, align 4
  store ptr %0, ptr %2, align 8, !tbaa !90
  call void @llvm.lifetime.start.p0(i64 4, ptr %3) #11
  call void @llvm.lifetime.start.p0(i64 4, ptr %4) #11
  %5 = load ptr, ptr %2, align 8, !tbaa !90
  %6 = icmp ne ptr %5, null
  br i1 %6, label %7, label %51

7:                                                ; preds = %1
  store i32 0, ptr %3, align 4, !tbaa !3
  br label %8

8:                                                ; preds = %46, %7
  %9 = load ptr, ptr %2, align 8, !tbaa !90
  %10 = load i32, ptr %3, align 4, !tbaa !3
  %11 = sext i32 %10 to i64
  %12 = getelementptr inbounds ptr, ptr %9, i64 %11
  %13 = load ptr, ptr %12, align 8, !tbaa !9
  %14 = icmp ne ptr %13, null
  br i1 %14, label %15, label %49

15:                                               ; preds = %8
  store i32 0, ptr %4, align 4, !tbaa !3
  br label %16

16:                                               ; preds = %37, %15
  %17 = load ptr, ptr %2, align 8, !tbaa !90
  %18 = load i32, ptr %3, align 4, !tbaa !3
  %19 = sext i32 %18 to i64
  %20 = getelementptr inbounds ptr, ptr %17, i64 %19
  %21 = load ptr, ptr %20, align 8, !tbaa !9
  %22 = load i32, ptr %4, align 4, !tbaa !3
  %23 = sext i32 %22 to i64
  %24 = getelementptr inbounds ptr, ptr %21, i64 %23
  %25 = load ptr, ptr %24, align 8, !tbaa !12
  %26 = icmp ne ptr %25, null
  br i1 %26, label %27, label %40

27:                                               ; preds = %16
  %28 = load ptr, ptr %2, align 8, !tbaa !90
  %29 = load i32, ptr %3, align 4, !tbaa !3
  %30 = sext i32 %29 to i64
  %31 = getelementptr inbounds ptr, ptr %28, i64 %30
  %32 = load ptr, ptr %31, align 8, !tbaa !9
  %33 = load i32, ptr %4, align 4, !tbaa !3
  %34 = sext i32 %33 to i64
  %35 = getelementptr inbounds ptr, ptr %32, i64 %34
  %36 = load ptr, ptr %35, align 8, !tbaa !12
  call void @free(ptr noundef %36) #11
  br label %37

37:                                               ; preds = %27
  %38 = load i32, ptr %4, align 4, !tbaa !3
  %39 = add nsw i32 %38, 1
  store i32 %39, ptr %4, align 4, !tbaa !3
  br label %16, !llvm.loop !94

40:                                               ; preds = %16
  %41 = load ptr, ptr %2, align 8, !tbaa !90
  %42 = load i32, ptr %3, align 4, !tbaa !3
  %43 = sext i32 %42 to i64
  %44 = getelementptr inbounds ptr, ptr %41, i64 %43
  %45 = load ptr, ptr %44, align 8, !tbaa !9
  call void @free(ptr noundef %45) #11
  br label %46

46:                                               ; preds = %40
  %47 = load i32, ptr %3, align 4, !tbaa !3
  %48 = add nsw i32 %47, 1
  store i32 %48, ptr %3, align 4, !tbaa !3
  br label %8, !llvm.loop !95

49:                                               ; preds = %8
  %50 = load ptr, ptr %2, align 8, !tbaa !90
  call void @free(ptr noundef %50) #11
  br label %51

51:                                               ; preds = %49, %1
  call void @llvm.lifetime.end.p0(i64 4, ptr %4) #11
  call void @llvm.lifetime.end.p0(i64 4, ptr %3) #11
  ret void
}

; Function Attrs: nounwind uwtable
define void @free_array(ptr noundef %0) #0 {
  %2 = alloca ptr, align 8
  store ptr %0, ptr %2, align 8, !tbaa !9
  %3 = load ptr, ptr %2, align 8, !tbaa !9
  %4 = icmp ne ptr %3, null
  br i1 %4, label %5, label %10

5:                                                ; preds = %1
  %6 = load ptr, ptr %2, align 8, !tbaa !9
  %7 = getelementptr inbounds ptr, ptr %6, i64 0
  %8 = load ptr, ptr %7, align 8, !tbaa !12
  call void @free(ptr noundef %8) #11
  %9 = load ptr, ptr %2, align 8, !tbaa !9
  call void @free(ptr noundef %9) #11
  br label %10

10:                                               ; preds = %5, %1
  ret void
}

; Function Attrs: nounwind uwtable
define void @free_scan_graph(ptr noundef %0) #0 {
  %2 = alloca ptr, align 8
  store ptr %0, ptr %2, align 8, !tbaa !22
  %3 = load ptr, ptr %2, align 8, !tbaa !22
  %4 = getelementptr inbounds nuw %struct.Agobj_s, ptr %3, i32 0, i32 1
  %5 = load ptr, ptr %4, align 8, !tbaa !47
  %6 = getelementptr inbounds nuw %struct.Agraphinfo_t, ptr %5, i32 0, i32 16
  %7 = load ptr, ptr %6, align 8, !tbaa !48
  call void @free(ptr noundef %7) #11
  %8 = load i32, ptr @Nop, align 4, !tbaa !3
  %9 = icmp ne i32 %8, 0
  br i1 %9, label %35, label %10

10:                                               ; preds = %1
  %11 = load ptr, ptr %2, align 8, !tbaa !22
  %12 = getelementptr inbounds nuw %struct.Agobj_s, ptr %11, i32 0, i32 1
  %13 = load ptr, ptr %12, align 8, !tbaa !47
  %14 = getelementptr inbounds nuw %struct.Agraphinfo_t, ptr %13, i32 0, i32 18
  %15 = load ptr, ptr %14, align 8, !tbaa !72
  call void @free_array(ptr noundef %15)
  %16 = load ptr, ptr %2, align 8, !tbaa !22
  %17 = getelementptr inbounds nuw %struct.Agobj_s, ptr %16, i32 0, i32 1
  %18 = load ptr, ptr %17, align 8, !tbaa !47
  %19 = getelementptr inbounds nuw %struct.Agraphinfo_t, ptr %18, i32 0, i32 19
  %20 = load ptr, ptr %19, align 8, !tbaa !73
  call void @free_array(ptr noundef %20)
  %21 = load ptr, ptr %2, align 8, !tbaa !22
  %22 = getelementptr inbounds nuw %struct.Agobj_s, ptr %21, i32 0, i32 1
  %23 = load ptr, ptr %22, align 8, !tbaa !47
  %24 = getelementptr inbounds nuw %struct.Agraphinfo_t, ptr %23, i32 0, i32 20
  %25 = load ptr, ptr %24, align 8, !tbaa !75
  call void @free_array(ptr noundef %25)
  %26 = load ptr, ptr %2, align 8, !tbaa !22
  %27 = getelementptr inbounds nuw %struct.Agobj_s, ptr %26, i32 0, i32 1
  %28 = load ptr, ptr %27, align 8, !tbaa !47
  %29 = getelementptr inbounds nuw %struct.Agraphinfo_t, ptr %28, i32 0, i32 21
  %30 = load ptr, ptr %29, align 8, !tbaa !76
  call void @free_3array(ptr noundef %30)
  %31 = load ptr, ptr %2, align 8, !tbaa !22
  %32 = getelementptr inbounds nuw %struct.Agobj_s, ptr %31, i32 0, i32 1
  %33 = load ptr, ptr %32, align 8, !tbaa !47
  %34 = getelementptr inbounds nuw %struct.Agraphinfo_t, ptr %33, i32 0, i32 21
  store ptr null, ptr %34, align 8, !tbaa !76
  br label %35

35:                                               ; preds = %10, %1
  ret void
}