; Function Attrs: nounwind uwtable
define void @free_scan_graph(ptr noundef readonly captures(none) %0) local_unnamed_addr #4 {
  %2 = getelementptr inbounds nuw i8, ptr %0, i64 16
  %3 = load ptr, ptr %2, align 8, !tbaa !40
  %4 = getelementptr inbounds nuw i8, ptr %3, i64 184
  %5 = load ptr, ptr %4, align 8, !tbaa !41
  tail call void @free(ptr noundef %5) #21
  %6 = load i32, ptr @Nop, align 4, !tbaa !68
  %.not = icmp eq i32 %6, 0
  br i1 %.not, label %7, label %38

7:                                                ; preds = %1
  %8 = load ptr, ptr %2, align 8, !tbaa !40
  %9 = getelementptr inbounds nuw i8, ptr %8, i64 200
  %10 = load ptr, ptr %9, align 8, !tbaa !69
  %.not.i = icmp eq ptr %10, null
  br i1 %.not.i, label %free_array.exit, label %11

11:                                               ; preds = %7
  %12 = load ptr, ptr %10, align 8, !tbaa !8
  tail call void @free(ptr noundef %12) #21
  tail call void @free(ptr noundef nonnull %10) #21
  %.pre = load ptr, ptr %2, align 8, !tbaa !40
  br label %free_array.exit

free_array.exit:                                  ; preds = %7, %11
  %13 = phi ptr [ %8, %7 ], [ %.pre, %11 ]
  %14 = getelementptr inbounds nuw i8, ptr %13, i64 208
  %15 = load ptr, ptr %14, align 8, !tbaa !70
  %.not.i6 = icmp eq ptr %15, null
  br i1 %.not.i6, label %free_array.exit7, label %16

16:                                               ; preds = %free_array.exit
  %17 = load ptr, ptr %15, align 8, !tbaa !8
  tail call void @free(ptr noundef %17) #21
  tail call void @free(ptr noundef nonnull %15) #21
  %.pre11 = load ptr, ptr %2, align 8, !tbaa !40
  br label %free_array.exit7

free_array.exit7:                                 ; preds = %free_array.exit, %16
  %18 = phi ptr [ %13, %free_array.exit ], [ %.pre11, %16 ]
  %19 = getelementptr inbounds nuw i8, ptr %18, i64 216
  %20 = load ptr, ptr %19, align 8, !tbaa !72
  %.not.i8 = icmp eq ptr %20, null
  br i1 %.not.i8, label %free_array.exit9, label %21

21:                                               ; preds = %free_array.exit7
  %22 = load ptr, ptr %20, align 8, !tbaa !8
  tail call void @free(ptr noundef %22) #21
  tail call void @free(ptr noundef nonnull %20) #21
  %.pre12 = load ptr, ptr %2, align 8, !tbaa !40
  br label %free_array.exit9

free_array.exit9:                                 ; preds = %free_array.exit7, %21
  %23 = phi ptr [ %18, %free_array.exit7 ], [ %.pre12, %21 ]
  %24 = getelementptr inbounds nuw i8, ptr %23, i64 224
  %25 = load ptr, ptr %24, align 8, !tbaa !76
  %.not.i10 = icmp eq ptr %25, null
  br i1 %.not.i10, label %free_3array.exit, label %.preheader18.i

.preheader18.i:                                   ; preds = %free_array.exit9
  %26 = load ptr, ptr %25, align 8, !tbaa !73
  %.not1621.i = icmp eq ptr %26, null
  br i1 %.not1621.i, label %._crit_edge23.i, label %.preheader.i

.preheader.i:                                     ; preds = %.preheader18.i, %._crit_edge.i
  %27 = phi ptr [ %35, %._crit_edge.i ], [ %26, %.preheader18.i ]
  %indvars.iv26.i = phi i64 [ %indvars.iv.next27.i, %._crit_edge.i ], [ 0, %.preheader18.i ]
  %28 = getelementptr inbounds nuw ptr, ptr %25, i64 %indvars.iv26.i
  %29 = load ptr, ptr %27, align 8, !tbaa !8
  %.not1719.i = icmp eq ptr %29, null
  br i1 %.not1719.i, label %._crit_edge.i, label %.lr.ph.i

.lr.ph.i:                                         ; preds = %.preheader.i, %.lr.ph.i
  %indvars.iv.i = phi i64 [ %indvars.iv.next.i, %.lr.ph.i ], [ 0, %.preheader.i ]
  %30 = phi ptr [ %33, %.lr.ph.i ], [ %29, %.preheader.i ]
  tail call void @free(ptr noundef nonnull %30) #21
  %indvars.iv.next.i = add nuw nsw i64 %indvars.iv.i, 1
  %31 = load ptr, ptr %28, align 8, !tbaa !73
  %32 = getelementptr inbounds nuw ptr, ptr %31, i64 %indvars.iv.next.i
  %33 = load ptr, ptr %32, align 8, !tbaa !8
  %.not17.i = icmp eq ptr %33, null
  br i1 %.not17.i, label %._crit_edge.i, label %.lr.ph.i, !llvm.loop !84

._crit_edge.i:                                    ; preds = %.lr.ph.i, %.preheader.i
  %.lcssa.i = phi ptr [ %27, %.preheader.i ], [ %31, %.lr.ph.i ]
  tail call void @free(ptr noundef nonnull %.lcssa.i) #21
  %indvars.iv.next27.i = add nuw nsw i64 %indvars.iv26.i, 1
  %34 = getelementptr inbounds nuw ptr, ptr %25, i64 %indvars.iv.next27.i
  %35 = load ptr, ptr %34, align 8, !tbaa !73
  %.not16.i = icmp eq ptr %35, null
  br i1 %.not16.i, label %._crit_edge23.i, label %.preheader.i, !llvm.loop !85

._crit_edge23.i:                                  ; preds = %._crit_edge.i, %.preheader18.i
  tail call void @free(ptr noundef nonnull %25) #21
  %.pre13 = load ptr, ptr %2, align 8, !tbaa !40
  br label %free_3array.exit

free_3array.exit:                                 ; preds = %free_array.exit9, %._crit_edge23.i
  %36 = phi ptr [ %23, %free_array.exit9 ], [ %.pre13, %._crit_edge23.i ]
  %37 = getelementptr inbounds nuw i8, ptr %36, i64 224
  store ptr null, ptr %37, align 8, !tbaa !76
  br label %38

38:                                               ; preds = %free_3array.exit, %1
  ret void
}